; ModuleID = '9/1387.c'
source_filename = "9/1387.c"
target datalayout = "e-m:e-p270:32:32-p271:32:32-p272:64:64-i64:64-f80:128-n8:16:32:64-S128"
target triple = "x86_64-pc-linux-gnu"

%struct.student = type { [10 x i8], i32 }

@stu = common dso_local global [100 x %struct.student] zeroinitializer, align 16
@.str = private unnamed_addr constant [3 x i8] c"%d\00", align 1
@.str.1 = private unnamed_addr constant [6 x i8] c"%s %d\00", align 1
@.str.2 = private unnamed_addr constant [4 x i8] c"%s\0A\00", align 1

; Function Attrs: noinline nounwind uwtable
define dso_local i32 @main() #0 {
  %1 = alloca i32, align 4
  %2 = alloca i8, align 1
  %3 = alloca i32, align 4
  %4 = alloca i32, align 4
  %5 = alloca i32, align 4
  %6 = alloca %struct.student*, align 8
  %7 = alloca %struct.student, align 4
  store i32 0, i32* %1, align 4
  store %struct.student* getelementptr inbounds ([100 x %struct.student], [100 x %struct.student]* @stu, i64 0, i64 0), %struct.student** %6, align 8
  store %struct.student* getelementptr inbounds ([100 x %struct.student], [100 x %struct.student]* @stu, i64 0, i64 0), %struct.student** %6, align 8
  %8 = call i32 (i8*, ...) @__isoc99_scanf(i8* getelementptr inbounds ([3 x i8], [3 x i8]* @.str, i64 0, i64 0), i32* %3)
  store i32 0, i32* %4, align 4
  br label %9

9:                                                ; preds = %24, %0
  %10 = load i32, i32* %4, align 4
  %11 = load i32, i32* %3, align 4
  %12 = icmp slt i32 %10, %11
  br i1 %12, label %13, label %27

13:                                               ; preds = %9
  %14 = load i32, i32* %4, align 4
  %15 = sext i32 %14 to i64
  %16 = getelementptr inbounds [100 x %struct.student], [100 x %struct.student]* @stu, i64 0, i64 %15
  %17 = getelementptr inbounds %struct.student, %struct.student* %16, i32 0, i32 0
  %18 = getelementptr inbounds [10 x i8], [10 x i8]* %17, i64 0, i64 0
  %19 = load i32, i32* %4, align 4
  %20 = sext i32 %19 to i64
  %21 = getelementptr inbounds [100 x %struct.student], [100 x %struct.student]* @stu, i64 0, i64 %20
  %22 = getelementptr inbounds %struct.student, %struct.student* %21, i32 0, i32 1
  %23 = call i32 (i8*, ...) @__isoc99_scanf(i8* getelementptr inbounds ([6 x i8], [6 x i8]* @.str.1, i64 0, i64 0), i8* %18, i32* %22)
  br label %24

24:                                               ; preds = %13
  %25 = load i32, i32* %4, align 4
  %26 = add nsw i32 %25, 1
  store i32 %26, i32* %4, align 4
  br label %9

27:                                               ; preds = %9
  store i32 0, i32* %5, align 4
  br label %28

28:                                               ; preds = %88, %27
  %29 = load i32, i32* %5, align 4
  %30 = load i32, i32* %3, align 4
  %31 = icmp slt i32 %29, %30
  br i1 %31, label %32, label %91

32:                                               ; preds = %28
  %33 = load i32, i32* %5, align 4
  %34 = sext i32 %33 to i64
  %35 = getelementptr inbounds [100 x %struct.student], [100 x %struct.student]* @stu, i64 0, i64 %34
  %36 = getelementptr inbounds %struct.student, %struct.student* %35, i32 0, i32 1
  %37 = load i32, i32* %36, align 4
  %38 = icmp sge i32 %37, 60
  br i1 %38, label %39, label %87

39:                                               ; preds = %32
  %40 = load i32, i32* %5, align 4
  store i32 %40, i32* %4, align 4
  br label %41

41:                                               ; preds = %83, %39
  %42 = load i32, i32* %4, align 4
  %43 = icmp sgt i32 %42, 0
  br i1 %43, label %44, label %86

44:                                               ; preds = %41
  %45 = load i32, i32* %4, align 4
  %46 = sext i32 %45 to i64
  %47 = getelementptr inbounds [100 x %struct.student], [100 x %struct.student]* @stu, i64 0, i64 %46
  %48 = getelementptr inbounds %struct.student, %struct.student* %47, i32 0, i32 1
  %49 = load i32, i32* %48, align 4
  %50 = load i32, i32* %4, align 4
  %51 = sub nsw i32 %50, 1
  %52 = sext i32 %51 to i64
  %53 = getelementptr inbounds [100 x %struct.student], [100 x %struct.student]* @stu, i64 0, i64 %52
  %54 = getelementptr inbounds %struct.student, %struct.student* %53, i32 0, i32 1
  %55 = load i32, i32* %54, align 4
  %56 = icmp sgt i32 %49, %55
  br i1 %56, label %57, label %82

57:                                               ; preds = %44
  %58 = load %struct.student*, %struct.student** %6, align 8
  %59 = load i32, i32* %4, align 4
  %60 = sext i32 %59 to i64
  %61 = getelementptr inbounds %struct.student, %struct.student* %58, i64 %60
  %62 = bitcast %struct.student* %7 to i8*
  %63 = bitcast %struct.student* %61 to i8*
  call void @llvm.memcpy.p0i8.p0i8.i64(i8* align 4 %62, i8* align 4 %63, i64 16, i1 false)
  %64 = load %struct.student*, %struct.student** %6, align 8
  %65 = load i32, i32* %4, align 4
  %66 = sext i32 %65 to i64
  %67 = getelementptr inbounds %struct.student, %struct.student* %64, i64 %66
  %68 = load %struct.student*, %struct.student** %6, align 8
  %69 = load i32, i32* %4, align 4
  %70 = sext i32 %69 to i64
  %71 = getelementptr inbounds %struct.student, %struct.student* %68, i64 %70
  %72 = getelementptr inbounds %struct.student, %struct.student* %71, i64 -1
  %73 = bitcast %struct.student* %67 to i8*
  %74 = bitcast %struct.student* %72 to i8*
  call void @llvm.memcpy.p0i8.p0i8.i64(i8* align 4 %73, i8* align 4 %74, i64 16, i1 false)
  %75 = load %struct.student*, %struct.student** %6, align 8
  %76 = getelementptr inbounds %struct.student, %struct.student* %75, i64 -1
  %77 = load i32, i32* %4, align 4
  %78 = sext i32 %77 to i64
  %79 = getelementptr inbounds %struct.student, %struct.student* %76, i64 %78
  %80 = bitcast %struct.student* %79 to i8*
  %81 = bitcast %struct.student* %7 to i8*
  call void @llvm.memcpy.p0i8.p0i8.i64(i8* align 4 %80, i8* align 4 %81, i64 16, i1 false)
  br label %82

82:                                               ; preds = %57, %44
  br label %83

83:                                               ; preds = %82
  %84 = load i32, i32* %4, align 4
  %85 = add nsw i32 %84, -1
  store i32 %85, i32* %4, align 4
  br label %41

86:                                               ; preds = %41
  br label %87

87:                                               ; preds = %86, %32
  br label %88

88:                                               ; preds = %87
  %89 = load i32, i32* %5, align 4
  %90 = add nsw i32 %89, 1
  store i32 %90, i32* %5, align 4
  br label %28

91:                                               ; preds = %28
  store i32 0, i32* %4, align 4
  br label %92

92:                                               ; preds = %104, %91
  %93 = load i32, i32* %4, align 4
  %94 = load i32, i32* %3, align 4
  %95 = icmp slt i32 %93, %94
  br i1 %95, label %96, label %107

96:                                               ; preds = %92
  %97 = load %struct.student*, %struct.student** %6, align 8
  %98 = load i32, i32* %4, align 4
  %99 = sext i32 %98 to i64
  %100 = getelementptr inbounds %struct.student, %struct.student* %97, i64 %99
  %101 = getelementptr inbounds %struct.student, %struct.student* %100, i32 0, i32 0
  %102 = getelementptr inbounds [10 x i8], [10 x i8]* %101, i64 0, i64 0
  %103 = call i32 (i8*, ...) @printf(i8* getelementptr inbounds ([4 x i8], [4 x i8]* @.str.2, i64 0, i64 0), i8* %102)
  br label %104

104:                                              ; preds = %96
  %105 = load i32, i32* %4, align 4
  %106 = add nsw i32 %105, 1
  store i32 %106, i32* %4, align 4
  br label %92

107:                                              ; preds = %92
  ret i32 0
}

declare dso_local i32 @__isoc99_scanf(i8*, ...) #1

; Function Attrs: argmemonly nounwind willreturn
declare void @llvm.memcpy.p0i8.p0i8.i64(i8* noalias nocapture writeonly, i8* noalias nocapture readonly, i64, i1 immarg) #2

declare dso_local i32 @printf(i8*, ...) #1


!llvm.module.flags = !{!0}
!llvm.ident = !{!1}

!0 = !{i32 1, !"wchar_size", i32 4}
!1 = !{!"clang version 10.0.0-4ubuntu1 "}
